; Function Attrs: nounwind uwtable
define range(i32 -1, 1) i32 @H5Pget_attr_phase_change(i64 noundef %0, ptr noundef %1, ptr noundef %2) local_unnamed_addr #0 {
  %4 = alloca %struct.H5CX_node_t, align 8
  call void @llvm.lifetime.start.p0(i64 480, ptr nonnull %4) #10
  call void @llvm.memset.p0.i64(ptr noundef nonnull align 8 dereferenceable(480) %4, i8 0, i64 480, i1 false)
  %5 = load i8, ptr @H5_libinit_g, align 1, !tbaa !3, !range !7, !noundef !8
  %6 = trunc nuw i8 %5 to i1
  %7 = load i8, ptr @H5_libterm_g, align 1, !range !7
  %8 = trunc nuw i8 %7 to i1
  %9 = select i1 %6, i1 true, i1 %8
  br i1 %9, label %17, label %10, !prof !9

10:                                               ; preds = %3
  %11 = tail call i32 @H5_init_library() #10
  %12 = icmp slt i32 %11, 0
  br i1 %12, label %13, label %._crit_edge, !prof !14

._crit_edge:                                      ; preds = %10
  %.pre = load i8, ptr @H5_libterm_g, align 1, !range !7
  br label %17

13:                                               ; preds = %10
  %14 = load i64, ptr @H5E_FUNC_g, align 8, !tbaa !10
  %15 = load i64, ptr @H5E_CANTINIT_g, align 8, !tbaa !10
  %16 = tail call i32 (ptr, ptr, i32, i64, i64, ptr, ...) @H5E_printf_stack(ptr noundef nonnull @.str.1, ptr noundef nonnull @__func__.H5Pget_attr_phase_change, i32 noundef 245, i64 noundef %14, i64 noundef %15, ptr noundef nonnull @.str.2) #10
  br label %.thread29

17:                                               ; preds = %._crit_edge, %3
  %18 = phi i8 [ %.pre, %._crit_edge ], [ %7, %3 ]
  %19 = load i8, ptr @H5P_init_g, align 1, !tbaa !3, !range !7, !noundef !8
  %20 = trunc nuw i8 %19 to i1
  %21 = trunc nuw i8 %18 to i1
  %22 = select i1 %20, i1 true, i1 %21
  br i1 %22, label %30, label %23, !prof !9

23:                                               ; preds = %17
  store i8 1, ptr @H5P_init_g, align 1, !tbaa !3
  %24 = tail call i32 @H5P__init_package() #10
  %25 = icmp slt i32 %24, 0
  br i1 %25, label %26, label %30, !prof !15

26:                                               ; preds = %23
  store i8 0, ptr @H5P_init_g, align 1, !tbaa !3
  %27 = load i64, ptr @H5E_FUNC_g, align 8, !tbaa !10
  %28 = load i64, ptr @H5E_CANTINIT_g, align 8, !tbaa !10
  %29 = tail call i32 (ptr, ptr, i32, i64, i64, ptr, ...) @H5E_printf_stack(ptr noundef nonnull @.str.1, ptr noundef nonnull @__func__.H5Pget_attr_phase_change, i32 noundef 245, i64 noundef %27, i64 noundef %28, ptr noundef nonnull @.str.3) #10
  br label %.thread29

30:                                               ; preds = %17, %23
  %31 = call i32 @H5CX_push(ptr noundef nonnull %4) #10
  %32 = icmp slt i32 %31, 0
  br i1 %32, label %33, label %37, !prof !14

33:                                               ; preds = %30
  %34 = load i64, ptr @H5E_FUNC_g, align 8, !tbaa !10
  %35 = load i64, ptr @H5E_CANTSET_g, align 8, !tbaa !10
  %36 = call i32 (ptr, ptr, i32, i64, i64, ptr, ...) @H5E_printf_stack(ptr noundef nonnull @.str.1, ptr noundef nonnull @__func__.H5Pget_attr_phase_change, i32 noundef 245, i64 noundef %34, i64 noundef %35, ptr noundef nonnull @.str.4) #10
  br label %.thread29

37:                                               ; preds = %30
  %38 = call i32 @H5E_clear_stack() #10
  %39 = load i64, ptr @H5P_CLS_OBJECT_CREATE_ID_g, align 8, !tbaa !10
  %40 = call ptr @H5P_object_verify(i64 noundef %0, i64 noundef %39, i1 noundef zeroext true) #10
  %41 = icmp eq ptr %40, null
  br i1 %41, label %42, label %46, !prof !16

42:                                               ; preds = %37
  %43 = load i64, ptr @H5E_ID_g, align 8, !tbaa !10
  %44 = load i64, ptr @H5E_BADID_g, align 8, !tbaa !10
  %45 = call i32 (ptr, ptr, i32, i64, i64, ptr, ...) @H5E_printf_stack(ptr noundef nonnull @.str.1, ptr noundef nonnull @__func__.H5Pget_attr_phase_change, i32 noundef 249, i64 noundef %43, i64 noundef %44, ptr noundef nonnull @.str.8) #10
  br label %.thread35

46:                                               ; preds = %37
  %.not = icmp eq ptr %1, null
  br i1 %.not, label %54, label %47

47:                                               ; preds = %46
  %48 = call i32 @H5P_get(ptr noundef nonnull %40, ptr noundef nonnull @.str.9, ptr noundef nonnull %1) #10
  %49 = icmp slt i32 %48, 0
  br i1 %49, label %50, label %54, !prof !16

50:                                               ; preds = %47
  %51 = load i64, ptr @H5E_PLIST_g, align 8, !tbaa !10
  %52 = load i64, ptr @H5E_CANTGET_g, align 8, !tbaa !10
  %53 = call i32 (ptr, ptr, i32, i64, i64, ptr, ...) @H5E_printf_stack(ptr noundef nonnull @.str.1, ptr noundef nonnull @__func__.H5Pget_attr_phase_change, i32 noundef 254, i64 noundef %51, i64 noundef %52, ptr noundef nonnull @.str.13) #10
  br label %.thread35

54:                                               ; preds = %47, %46
  %.not20 = icmp eq ptr %2, null
  br i1 %.not20, label %63, label %55

55:                                               ; preds = %54
  %56 = call i32 @H5P_get(ptr noundef nonnull %40, ptr noundef nonnull @.str.11, ptr noundef nonnull %2) #10
  %57 = icmp slt i32 %56, 0
  br i1 %57, label %58, label %63, !prof !16

58:                                               ; preds = %55
  %59 = load i64, ptr @H5E_PLIST_g, align 8, !tbaa !10
  %60 = load i64, ptr @H5E_CANTGET_g, align 8, !tbaa !10
  %61 = call i32 (ptr, ptr, i32, i64, i64, ptr, ...) @H5E_printf_stack(ptr noundef nonnull @.str.1, ptr noundef nonnull @__func__.H5Pget_attr_phase_change, i32 noundef 258, i64 noundef %59, i64 noundef %60, ptr noundef nonnull @.str.14) #10
  br label %.thread35

.thread35:                                        ; preds = %58, %50, %42
  %62 = call i32 @H5CX_pop(i1 noundef zeroext true) #10
  br label %.thread29

63:                                               ; preds = %54, %55
  %64 = call i32 @H5CX_pop(i1 noundef zeroext true) #10
  br label %66

.thread29:                                        ; preds = %33, %26, %13, %.thread35
  %65 = call i32 @H5E_dump_api_stack() #10
  br label %66

66:                                               ; preds = %63, %.thread29
  %.0162432 = phi i32 [ -1, %.thread29 ], [ 0, %63 ]
  call void @llvm.lifetime.end.p0(i64 480, ptr nonnull %4) #10
  ret i32 %.0162432
}